target datalayout = "e-m:e-p270:32:32-p271:32:32-p272:64:64-i64:64-i128:128-f80:128-n8:16:32:64-S128"
target triple = "x86_64-pc-linux-gnu"

%class.Statement = type { ptr, i32, i32, ptr, ptr }
%class.StatementContinue = type { %class.Statement, ptr, ptr }

; Function Attrs: mustprogress uwtable
define dso_local noundef zeroext i1 @_ZNK17StatementContinue9must_jumpEv(ptr noundef nonnull align 8 dereferenceable(48) %0) unnamed_addr #4 align 2 {
  %2 = alloca ptr, align 8
  store ptr %0, ptr %2, align 8
  %3 = load ptr, ptr %2, align 8
  %4 = getelementptr inbounds %class.StatementContinue, ptr %3, i32 0, i32 1
  %5 = load ptr, ptr %4, align 8
  %6 = load ptr, ptr %5, align 8
  %7 = getelementptr inbounds ptr, ptr %6, i64 14
  %8 = load ptr, ptr %7, align 8
  %9 = call noundef zeroext i1 %8(ptr noundef nonnull align 8 dereferenceable(24) %5, i32 noundef 0)
  ret i1 %9
}